target datalayout = "e-m:e-p270:32:32-p271:32:32-p272:64:64-i64:64-i128:128-f80:128-n8:16:32:64-S128"
target triple = "x86_64-unknown-linux-gnu"

%"struct.smt::theory_special_relations::relation" = type { ptr, %class.obj_ref, i32, ptr, %class.ptr_vector, i32, %class.svector, %"struct.smt::theory_special_relations::graph", %class.union_find_default_ctx, %class.union_find, %class.svector.16 }
%class.obj_ref = type { ptr, ptr }
%class.ptr_vector = type { %class.vector }
%class.vector = type { ptr }
%class.svector = type { %class.vector.0 }
%class.vector.0 = type { ptr }
%"struct.smt::theory_special_relations::graph" = type { %class.dl_graph }
%class.dl_graph = type { %"struct.dl_graph<smt::theory_special_relations::int_ext>::stats", %class.vector.1, %class.vector.2, %class.vector.3, %class.vector.4, %class.vector.4, %class.svector.5, %class.vector.1, %class.svector.7, %class.svector.9, %class.svector.9, %class.heap, i32, i32, %class.svector.9, %class.svector.7, %class.svector.9, %class.svector.9, %class.svector.9, i32, i32, %class.svector.11, %class.svector.9, i32, i32, %class.svector.9, %class.svector.9, %class.svector.9, %class.svector.9, %"struct.dl_graph<smt::theory_special_relations::int_ext>::dfs_state", %"struct.dl_graph<smt::theory_special_relations::int_ext>::dfs_state" }
%"struct.dl_graph<smt::theory_special_relations::int_ext>::stats" = type { i32, i32, i32, i32, i32 }
%class.vector.2 = type { ptr }
%class.vector.3 = type { ptr }
%class.vector.4 = type { ptr }
%class.svector.5 = type { %class.vector.6 }
%class.vector.6 = type { ptr }
%class.vector.1 = type { ptr }
%class.heap = type { %class.dl_var_lt, %class.svector.9, %class.svector.9 }
%class.dl_var_lt = type { ptr }
%class.svector.7 = type { %class.vector.8 }
%class.vector.8 = type { ptr }
%class.svector.11 = type { %class.vector.12 }
%class.vector.12 = type { ptr }
%class.svector.9 = type { %class.vector.10 }
%class.vector.10 = type { ptr }
%"struct.dl_graph<smt::theory_special_relations::int_ext>::dfs_state" = type <{ %class.vector.1, %class.svector.9, %class.svector.9, %class.heap.13, i32, [4 x i8] }>
%class.heap.13 = type { %"class.dl_graph<smt::theory_special_relations::int_ext>::dfs_state::hp_lt", %class.svector.9, %class.svector.9 }
%"class.dl_graph<smt::theory_special_relations::int_ext>::dfs_state::hp_lt" = type { ptr, ptr }
%class.union_find_default_ctx = type { %class.trail_stack }
%class.trail_stack = type { %class.ptr_vector.14, %class.svector.11, %class.region }
%class.ptr_vector.14 = type { %class.vector.15 }
%class.vector.15 = type { ptr }
%class.region = type { ptr, ptr, ptr, ptr, ptr }
%class.union_find = type { ptr, ptr, %class.svector.11, %class.svector.11, %class.svector.11, %"class.union_find<>::mk_var_trail" }
%"class.union_find<>::mk_var_trail" = type { %class.trail, ptr }
%class.trail = type { ptr }
%class.svector.16 = type { %class.vector.17 }
%class.vector.17 = type { ptr }
%"class.smt::theory" = type <{ ptr, i32, [4 x i8], ptr, ptr, %class.ptr_vector.43, %class.svector.11, i32, i8, [3 x i8] }>
%class.ptr_vector.43 = type { %class.vector.44 }
%class.vector.44 = type { ptr }
%class.obj_ref.96 = type { ptr, ptr }
%class.obj_hashtable = type { %class.core_hashtable.base.126, [4 x i8] }
%class.core_hashtable.base.126 = type <{ ptr, i32, i32, i32 }>
%class.ref = type { ptr }
%class.ref_vector.232 = type { %class.ref_vector_core.233 }
%class.ref_vector_core.233 = type { %class.ref_manager_wrapper.234, %class.ptr_vector.235 }
%class.ref_manager_wrapper.234 = type { ptr }
%class.ptr_vector.235 = type { %class.vector.236 }
%class.vector.236 = type { ptr }
%"class.smt::model_generator" = type { ptr, ptr, %class.ptr_vector.353, i32, [4 x i8], %class.obj_map.355, %class.ref_vector.232, %class.ref, %class.obj_hashtable }
%class.ptr_vector.353 = type { %class.vector.354 }
%class.vector.354 = type { ptr }
%class.obj_map.355 = type { %class.core_hashtable.356 }
%class.core_hashtable.356 = type <{ ptr, i32, i32, i32, [4 x i8] }>

; Function Attrs: mustprogress nounwind uwtable
define linkonce_odr hidden noundef nonnull align 8 dereferenceable(177) ptr @_ZN3refI11proto_modelEdeEv(ptr noundef nonnull align 8 dereferenceable(8) %this) #4 comdat align 2 {
entry:
  %this.addr = alloca ptr, align 8
  store ptr %this, ptr %this.addr, align 8
  %this1 = load ptr, ptr %this.addr, align 8
  %m_ptr = getelementptr inbounds %class.ref, ptr %this1, i32 0, i32 0
  %0 = load ptr, ptr %m_ptr, align 8
  ret ptr %0
}

; Function Attrs: mustprogress nounwind uwtable
define linkonce_odr hidden noundef ptr @_ZN3smt24theory_special_relations8relation4declEv(ptr noundef nonnull align 8 dereferenceable(552) %this) #4 comdat align 2 {
entry:
  %this.addr = alloca ptr, align 8
  store ptr %this, ptr %this.addr, align 8
  %this1 = load ptr, ptr %this.addr, align 8
  %m_decl = getelementptr inbounds %"struct.smt::theory_special_relations::relation", ptr %this1, i32 0, i32 3
  %0 = load ptr, ptr %m_decl, align 8
  ret ptr %0
}

; Function Attrs: mustprogress uwtable
define linkonce_odr hidden noundef nonnull align 8 dereferenceable(177) ptr @_ZN3smt15model_generator9get_modelEv(ptr noundef nonnull align 8 dereferenceable(104) %this) #5 comdat align 2 {
entry:
  %this.addr = alloca ptr, align 8
  store ptr %this, ptr %this.addr, align 8
  %this1 = load ptr, ptr %this.addr, align 8
  %m_model = getelementptr inbounds %"class.smt::model_generator", ptr %this1, i32 0, i32 7
  %call = call noundef nonnull align 8 dereferenceable(177) ptr @_ZN3refI11proto_modelEdeEv(ptr noundef nonnull align 8 dereferenceable(8) %m_model)
  ret ptr %call
}

; Function Attrs: mustprogress nounwind uwtable
define linkonce_odr hidden noundef ptr @_ZNK7obj_refI4expr11ast_managerEcvPS0_Ev(ptr noundef nonnull align 8 dereferenceable(16) %this) #4 comdat align 2 {
entry:
  %this.addr = alloca ptr, align 8
  store ptr %this, ptr %this.addr, align 8
  %this1 = load ptr, ptr %this.addr, align 8
  %m_obj = getelementptr inbounds %class.obj_ref.96, ptr %this1, i32 0, i32 0
  %0 = load ptr, ptr %m_obj, align 8
  ret ptr %0
}

; Function Attrs: mustprogress nounwind uwtable
define linkonce_odr hidden noundef nonnull align 8 dereferenceable(976) ptr @_ZNK3smt6theory11get_managerEv(ptr noundef nonnull align 8 dereferenceable(53) %this) #4 comdat align 2 {
entry:
  %this.addr = alloca ptr, align 8
  store ptr %this, ptr %this.addr, align 8
  %this1 = load ptr, ptr %this.addr, align 8
  %m = getelementptr inbounds %"class.smt::theory", ptr %this1, i32 0, i32 4
  %0 = load ptr, ptr %m, align 8
  ret ptr %0
}

; Function Attrs: mustprogress uwtable
define hidden void @_ZN3smt24theory_special_relations13init_model_loERNS0_8relationERNS_15model_generatorE(ptr noundef nonnull align 8 dereferenceable(145) %this, ptr noundef nonnull align 8 dereferenceable(552) %r, ptr noundef nonnull align 8 dereferenceable(104) %m) #5 align 2 personality ptr @__gxx_personality_v0 {
entry:
  %this.addr = alloca ptr, align 8
  %r.addr = alloca ptr, align 8
  %m.addr = alloca ptr, align 8
  %inj = alloca %class.obj_ref.96, align 8
  %fi = alloca ptr, align 8
  %exn.slot = alloca ptr, align 8
  %ehselector.slot = alloca i32, align 4
  store ptr %this, ptr %this.addr, align 8
  store ptr %r, ptr %r.addr, align 8
  store ptr %m, ptr %m.addr, align 8
  %this1 = load ptr, ptr %this.addr, align 8
  %0 = load ptr, ptr %r.addr, align 8
  %1 = load ptr, ptr %m.addr, align 8
  call void @_ZN3smt24theory_special_relations6mk_injERNS0_8relationERNS_15model_generatorE(ptr sret(%class.obj_ref.96) align 8 %inj, ptr noundef nonnull align 8 dereferenceable(145) %this1, ptr noundef nonnull align 8 dereferenceable(552) %0, ptr noundef nonnull align 8 dereferenceable(104) %1)
  %call = invoke noalias noundef ptr @_ZN6memory8allocateEm(i64 noundef 56)
          to label %invoke.cont unwind label %lpad

invoke.cont:                                      ; preds = %entry
  %call3 = invoke noundef nonnull align 8 dereferenceable(976) ptr @_ZNK3smt6theory11get_managerEv(ptr noundef nonnull align 8 dereferenceable(53) %this1)
          to label %invoke.cont2 unwind label %lpad

invoke.cont2:                                     ; preds = %invoke.cont
  invoke void @_ZN11func_interpC1ER11ast_managerj(ptr noundef nonnull align 8 dereferenceable(56) %call, ptr noundef nonnull align 8 dereferenceable(976) %call3, i32 noundef 2)
          to label %invoke.cont4 unwind label %lpad

invoke.cont4:                                     ; preds = %invoke.cont2
  store ptr %call, ptr %fi, align 8
  %2 = load ptr, ptr %fi, align 8
  %call6 = invoke noundef ptr @_ZNK7obj_refI4expr11ast_managerEcvPS0_Ev(ptr noundef nonnull align 8 dereferenceable(16) %inj)
          to label %invoke.cont5 unwind label %lpad

invoke.cont5:                                     ; preds = %invoke.cont4
  invoke void @_ZN11func_interp8set_elseEP4expr(ptr noundef nonnull align 8 dereferenceable(56) %2, ptr noundef %call6)
          to label %invoke.cont7 unwind label %lpad

invoke.cont7:                                     ; preds = %invoke.cont5
  %3 = load ptr, ptr %m.addr, align 8
  %call9 = invoke noundef nonnull align 8 dereferenceable(177) ptr @_ZN3smt15model_generator9get_modelEv(ptr noundef nonnull align 8 dereferenceable(104) %3)
          to label %invoke.cont8 unwind label %lpad

invoke.cont8:                                     ; preds = %invoke.cont7
  %4 = load ptr, ptr %r.addr, align 8
  %call11 = invoke noundef ptr @_ZN3smt24theory_special_relations8relation4declEv(ptr noundef nonnull align 8 dereferenceable(552) %4)
          to label %invoke.cont10 unwind label %lpad

invoke.cont10:                                    ; preds = %invoke.cont8
  %5 = load ptr, ptr %fi, align 8
  invoke void @_ZN10model_core13register_declEP9func_declP11func_interp(ptr noundef nonnull align 8 dereferenceable(96) %call9, ptr noundef %call11, ptr noundef %5)
          to label %invoke.cont12 unwind label %lpad

invoke.cont12:                                    ; preds = %invoke.cont10
  call void @_ZN7obj_refI4expr11ast_managerED2Ev(ptr noundef nonnull align 8 dereferenceable(16) %inj) #3
  ret void

lpad:                                             ; preds = %invoke.cont10, %invoke.cont8, %invoke.cont7, %invoke.cont5, %invoke.cont4, %invoke.cont2, %invoke.cont, %entry
  %6 = landingpad { ptr, i32 }
          cleanup
  %7 = extractvalue { ptr, i32 } %6, 0
  store ptr %7, ptr %exn.slot, align 8
  %8 = extractvalue { ptr, i32 } %6, 1
  store i32 %8, ptr %ehselector.slot, align 4
  call void @_ZN7obj_refI4expr11ast_managerED2Ev(ptr noundef nonnull align 8 dereferenceable(16) %inj) #3
  br label %eh.resume

eh.resume:                                        ; preds = %lpad
  %exn = load ptr, ptr %exn.slot, align 8
  %sel = load i32, ptr %ehselector.slot, align 4
  %lpad.val = insertvalue { ptr, i32 } poison, ptr %exn, 0
  %lpad.val13 = insertvalue { ptr, i32 } %lpad.val, i32 %sel, 1
  resume { ptr, i32 } %lpad.val13
}