; Function Attrs: mustprogress uwtable
define hidden void @_ZN3smt24theory_special_relations13init_model_loERNS0_8relationERNS_15model_generatorE(ptr nocapture noundef nonnull readonly align 8 dereferenceable(145) %this, ptr noundef nonnull align 8 dereferenceable(552) %r, ptr nocapture noundef nonnull readonly align 8 dereferenceable(104) %m) local_unnamed_addr #3 align 2 personality ptr @__gxx_personality_v0 {
entry:
  %inj = alloca %class.obj_ref.96, align 8
  call void @_ZN3smt24theory_special_relations6mk_injERNS0_8relationERNS_15model_generatorE(ptr nonnull sret(%class.obj_ref.96) align 8 %inj, ptr noundef nonnull align 8 dereferenceable(145) %this, ptr noundef nonnull align 8 dereferenceable(552) %r, ptr noundef nonnull align 8 dereferenceable(104) %m)
  %call = invoke noalias noundef ptr @_ZN6memory8allocateEm(i64 noundef 56)
          to label %invoke.cont unwind label %lpad

invoke.cont:                                      ; preds = %entry
  %m.i = getelementptr inbounds i8, ptr %this, i64 24
  %0 = load ptr, ptr %m.i, align 8
  invoke void @_ZN11func_interpC1ER11ast_managerj(ptr noundef nonnull align 8 dereferenceable(56) %call, ptr noundef nonnull align 8 dereferenceable(976) %0, i32 noundef 2)
          to label %invoke.cont4 unwind label %lpad

invoke.cont4:                                     ; preds = %invoke.cont
  %1 = load ptr, ptr %inj, align 8
  invoke void @_ZN11func_interp8set_elseEP4expr(ptr noundef nonnull align 8 dereferenceable(56) %call, ptr noundef %1)
          to label %invoke.cont8 unwind label %lpad

invoke.cont8:                                     ; preds = %invoke.cont4
  %m_model.i = getelementptr inbounds i8, ptr %m, i64 72
  %2 = load ptr, ptr %m_model.i, align 8
  %m_decl.i = getelementptr inbounds i8, ptr %r, i64 32
  %3 = load ptr, ptr %m_decl.i, align 8
  invoke void @_ZN10model_core13register_declEP9func_declP11func_interp(ptr noundef nonnull align 8 dereferenceable(96) %2, ptr noundef %3, ptr noundef nonnull %call)
          to label %invoke.cont12 unwind label %lpad

invoke.cont12:                                    ; preds = %invoke.cont8
  %4 = load ptr, ptr %inj, align 8
  %tobool.not.i.i = icmp eq ptr %4, null
  br i1 %tobool.not.i.i, label %_ZN7obj_refI4expr11ast_managerED2Ev.exit, label %if.then.i.i.i

if.then.i.i.i:                                    ; preds = %invoke.cont12
  %m_manager.i.i = getelementptr inbounds i8, ptr %inj, i64 8
  %5 = load ptr, ptr %m_manager.i.i, align 8
  %m_ref_count.i.i.i.i = getelementptr inbounds i8, ptr %4, i64 8
  %6 = load i32, ptr %m_ref_count.i.i.i.i, align 4
  %dec.i.i.i.i = add i32 %6, -1
  store i32 %dec.i.i.i.i, ptr %m_ref_count.i.i.i.i, align 4
  %cmp.i.i.i = icmp eq i32 %dec.i.i.i.i, 0
  br i1 %cmp.i.i.i, label %if.then2.i.i.i, label %_ZN7obj_refI4expr11ast_managerED2Ev.exit

if.then2.i.i.i:                                   ; preds = %if.then.i.i.i
  invoke void @_ZN11ast_manager11delete_nodeEP3ast(ptr noundef nonnull align 8 dereferenceable(976) %5, ptr noundef nonnull %4)
          to label %_ZN7obj_refI4expr11ast_managerED2Ev.exit unwind label %terminate.lpad.i

terminate.lpad.i:                                 ; preds = %if.then2.i.i.i
  %7 = landingpad { ptr, i32 }
          catch ptr null
  %8 = extractvalue { ptr, i32 } %7, 0
  call void @__clang_call_terminate(ptr %8) #21
  unreachable

_ZN7obj_refI4expr11ast_managerED2Ev.exit:         ; preds = %invoke.cont12, %if.then.i.i.i, %if.then2.i.i.i
  ret void

lpad:                                             ; preds = %invoke.cont8, %invoke.cont4, %invoke.cont, %entry
  %9 = landingpad { ptr, i32 }
          cleanup
  call void @_ZN7obj_refI4expr11ast_managerED2Ev(ptr noundef nonnull align 8 dereferenceable(16) %inj) #22
  resume { ptr, i32 } %9
}